target datalayout = "e-m:e-p270:32:32-p271:32:32-p272:64:64-i64:64-i128:128-f80:128-n8:16:32:64-S128"
target triple = "x86_64-pc-linux-gnu"

%"class.rocksdb::Slice" = type { ptr, i64 }

; Function Attrs: inlinehint mustprogress uwtable
define linkonce_odr noundef ptr @_ZN7rocksdb14GetVarint32PtrEPKcS1_Pj(ptr noundef %0, ptr noundef %1, ptr noundef %2) #3 comdat {
  %4 = alloca ptr, align 8
  %5 = alloca ptr, align 8
  %6 = alloca ptr, align 8
  %7 = alloca ptr, align 8
  %8 = alloca i32, align 4
  %9 = alloca i32, align 4
  store ptr %0, ptr %5, align 8, !tbaa !28
  store ptr %1, ptr %6, align 8, !tbaa !28
  store ptr %2, ptr %7, align 8, !tbaa !474
  %10 = load ptr, ptr %5, align 8, !tbaa !28
  %11 = load ptr, ptr %6, align 8, !tbaa !28
  %12 = icmp ult ptr %10, %11
  br i1 %12, label %13, label %29

13:                                               ; preds = %3
  call void @llvm.lifetime.start.p0(i64 4, ptr %8) #6
  %14 = load ptr, ptr %5, align 8, !tbaa !28
  %15 = load i8, ptr %14, align 1, !tbaa !475
  %16 = zext i8 %15 to i32
  store i32 %16, ptr %8, align 4, !tbaa !15
  %17 = load i32, ptr %8, align 4, !tbaa !15
  %18 = and i32 %17, 128
  %19 = icmp eq i32 %18, 0
  br i1 %19, label %20, label %25

20:                                               ; preds = %13
  %21 = load i32, ptr %8, align 4, !tbaa !15
  %22 = load ptr, ptr %7, align 8, !tbaa !474
  store i32 %21, ptr %22, align 4, !tbaa !15
  %23 = load ptr, ptr %5, align 8, !tbaa !28
  %24 = getelementptr inbounds i8, ptr %23, i64 1
  store ptr %24, ptr %4, align 8
  store i32 1, ptr %9, align 4
  br label %26

25:                                               ; preds = %13
  store i32 0, ptr %9, align 4
  br label %26

26:                                               ; preds = %25, %20
  call void @llvm.lifetime.end.p0(i64 4, ptr %8) #6
  %27 = load i32, ptr %9, align 4
  switch i32 %27, label %36 [
    i32 0, label %28
    i32 1, label %34
  ]

28:                                               ; preds = %26
  br label %29

29:                                               ; preds = %28, %3
  %30 = load ptr, ptr %5, align 8, !tbaa !28
  %31 = load ptr, ptr %6, align 8, !tbaa !28
  %32 = load ptr, ptr %7, align 8, !tbaa !474
  %33 = call noundef ptr @_ZN7rocksdb22GetVarint32PtrFallbackEPKcS1_Pj(ptr noundef %30, ptr noundef %31, ptr noundef %32)
  store ptr %33, ptr %4, align 8
  br label %34

34:                                               ; preds = %29, %26
  %35 = load ptr, ptr %4, align 8
  ret ptr %35

36:                                               ; preds = %26
  unreachable
}

; Function Attrs: mustprogress nounwind uwtable
define linkonce_odr void @_ZN7rocksdb5SliceC2EPKcm(ptr noundef nonnull align 8 dereferenceable(16) %0, ptr noundef %1, i64 noundef %2) unnamed_addr #5 comdat align 2 {
  %4 = alloca ptr, align 8
  %5 = alloca ptr, align 8
  %6 = alloca i64, align 8
  store ptr %0, ptr %4, align 8, !tbaa !13
  store ptr %1, ptr %5, align 8, !tbaa !28
  store i64 %2, ptr %6, align 8, !tbaa !4
  %7 = load ptr, ptr %4, align 8
  %8 = getelementptr inbounds nuw %"class.rocksdb::Slice", ptr %7, i32 0, i32 0
  %9 = load ptr, ptr %5, align 8, !tbaa !28
  store ptr %9, ptr %8, align 8, !tbaa !30
  %10 = getelementptr inbounds nuw %"class.rocksdb::Slice", ptr %7, i32 0, i32 1
  %11 = load i64, ptr %6, align 8, !tbaa !4
  store i64 %11, ptr %10, align 8, !tbaa !32
  ret void
}

; Function Attrs: mustprogress nounwind uwtable
define linkonce_odr noundef i64 @_ZNK7rocksdb5Slice4sizeEv(ptr noundef nonnull align 8 dereferenceable(16) %0) #5 comdat align 2 {
  %2 = alloca ptr, align 8
  store ptr %0, ptr %2, align 8, !tbaa !13
  %3 = load ptr, ptr %2, align 8
  %4 = getelementptr inbounds nuw %"class.rocksdb::Slice", ptr %3, i32 0, i32 1
  %5 = load i64, ptr %4, align 8, !tbaa !32
  ret i64 %5
}

; Function Attrs: mustprogress nounwind uwtable
define linkonce_odr noundef ptr @_ZNK7rocksdb5Slice4dataEv(ptr noundef nonnull align 8 dereferenceable(16) %0) #5 comdat align 2 {
  %2 = alloca ptr, align 8
  store ptr %0, ptr %2, align 8, !tbaa !13
  %3 = load ptr, ptr %2, align 8
  %4 = getelementptr inbounds nuw %"class.rocksdb::Slice", ptr %3, i32 0, i32 0
  %5 = load ptr, ptr %4, align 8, !tbaa !30
  ret ptr %5
}

; Function Attrs: inlinehint mustprogress uwtable
define linkonce_odr { ptr, i64 } @_ZN7rocksdb22GetLengthPrefixedSliceEPKc(ptr noundef %0) #3 comdat {
  %2 = alloca %"class.rocksdb::Slice", align 8
  %3 = alloca ptr, align 8
  %4 = alloca i32, align 4
  %5 = alloca ptr, align 8
  store ptr %0, ptr %3, align 8, !tbaa !28
  call void @llvm.lifetime.start.p0(i64 4, ptr %4) #6
  store i32 0, ptr %4, align 4, !tbaa !15
  call void @llvm.lifetime.start.p0(i64 8, ptr %5) #6
  %6 = load ptr, ptr %3, align 8, !tbaa !28
  %7 = load ptr, ptr %3, align 8, !tbaa !28
  %8 = getelementptr inbounds i8, ptr %7, i64 5
  %9 = call noundef ptr @_ZN7rocksdb14GetVarint32PtrEPKcS1_Pj(ptr noundef %6, ptr noundef %8, ptr noundef %4)
  store ptr %9, ptr %5, align 8, !tbaa !28
  %10 = load ptr, ptr %5, align 8, !tbaa !28
  %11 = load i32, ptr %4, align 4, !tbaa !15
  %12 = zext i32 %11 to i64
  call void @_ZN7rocksdb5SliceC2EPKcm(ptr noundef nonnull align 8 dereferenceable(16) %2, ptr noundef %10, i64 noundef %12)
  call void @llvm.lifetime.end.p0(i64 8, ptr %5) #6
  call void @llvm.lifetime.end.p0(i64 4, ptr %4) #6
  %13 = load { ptr, i64 }, ptr %2, align 8
  ret { ptr, i64 } %13
}

; Function Attrs: mustprogress uwtable
define { ptr, i64 } @_ZNK7rocksdb11MemTableRep7UserKeyEPKc(ptr noundef nonnull align 8 dereferenceable(16) %0, ptr noundef %1) unnamed_addr #4 align 2 {
  %3 = alloca %"class.rocksdb::Slice", align 8
  %4 = alloca ptr, align 8
  %5 = alloca ptr, align 8
  %6 = alloca %"class.rocksdb::Slice", align 8
  store ptr %0, ptr %4, align 8, !tbaa !384
  store ptr %1, ptr %5, align 8, !tbaa !28
  call void @llvm.lifetime.start.p0(i64 16, ptr %6) #6
  %7 = load ptr, ptr %5, align 8, !tbaa !28
  %8 = call { ptr, i64 } @_ZN7rocksdb22GetLengthPrefixedSliceEPKc(ptr noundef %7)
  %9 = getelementptr inbounds nuw { ptr, i64 }, ptr %6, i32 0, i32 0
  %10 = extractvalue { ptr, i64 } %8, 0
  store ptr %10, ptr %9, align 8
  %11 = getelementptr inbounds nuw { ptr, i64 }, ptr %6, i32 0, i32 1
  %12 = extractvalue { ptr, i64 } %8, 1
  store i64 %12, ptr %11, align 8
  %13 = call noundef ptr @_ZNK7rocksdb5Slice4dataEv(ptr noundef nonnull align 8 dereferenceable(16) %6)
  %14 = call noundef i64 @_ZNK7rocksdb5Slice4sizeEv(ptr noundef nonnull align 8 dereferenceable(16) %6)
  %15 = sub i64 %14, 8
  call void @_ZN7rocksdb5SliceC2EPKcm(ptr noundef nonnull align 8 dereferenceable(16) %3, ptr noundef %13, i64 noundef %15)
  call void @llvm.lifetime.end.p0(i64 16, ptr %6) #6
  %16 = load { ptr, i64 }, ptr %3, align 8
  ret { ptr, i64 } %16
}