; Function Attrs: mustprogress uwtable
define { ptr, i64 } @_ZNK7rocksdb11MemTableRep7UserKeyEPKc(ptr nonnull readnone align 8 captures(none) %0, ptr noundef %1) unnamed_addr #4 align 2 {
  %3 = alloca i32, align 4
  call void @llvm.lifetime.start.p0(i64 4, ptr nonnull %3) #35
  store i32 0, ptr %3, align 4, !tbaa !372
  %4 = load i8, ptr %1, align 1, !tbaa !30
  %5 = icmp sgt i8 %4, -1
  br i1 %5, label %6, label %.thread.i.i

6:                                                ; preds = %2
  %7 = zext nneg i8 %4 to i32
  %8 = getelementptr inbounds nuw i8, ptr %1, i64 1
  br label %_ZN7rocksdb22GetLengthPrefixedSliceEPKc.exit

.thread.i.i:                                      ; preds = %2
  %9 = getelementptr inbounds nuw i8, ptr %1, i64 5
  %10 = call noundef ptr @_ZN7rocksdb22GetVarint32PtrFallbackEPKcS1_Pj(ptr noundef nonnull %1, ptr noundef nonnull %9, ptr noundef nonnull %3)
  %.pre.i = load i32, ptr %3, align 4, !tbaa !372
  br label %_ZN7rocksdb22GetLengthPrefixedSliceEPKc.exit

_ZN7rocksdb22GetLengthPrefixedSliceEPKc.exit:     ; preds = %6, %.thread.i.i
  %11 = phi i32 [ %7, %6 ], [ %.pre.i, %.thread.i.i ]
  %.1.i.i = phi ptr [ %8, %6 ], [ %10, %.thread.i.i ]
  %12 = zext i32 %11 to i64
  call void @llvm.lifetime.end.p0(i64 4, ptr nonnull %3) #35
  %.fca.0.insert.i = insertvalue { ptr, i64 } poison, ptr %.1.i.i, 0
  %13 = add nsw i64 %12, -8
  %.fca.1.insert = insertvalue { ptr, i64 } %.fca.0.insert.i, i64 %13, 1
  ret { ptr, i64 } %.fca.1.insert
}